target datalayout = "e-m:e-p270:32:32-p271:32:32-p272:64:64-i64:64-i128:128-f80:128-n8:16:32:64-S128"
target triple = "x86_64-pc-linux-gnu"

%struct.MinRegMan_t_ = type { i32, i32, i32, i32, i32, i32, i32, i32, i32, i32, i32, ptr, i32, i32, i32, i32, i32, i32, i32, i32, i32, ptr, ptr, ptr, ptr, ptr, ptr, ptr, ptr, ptr, i32 }
%struct.Abc_Ntk_t_ = type { i32, i32, ptr, ptr, ptr, ptr, ptr, ptr, ptr, ptr, ptr, ptr, ptr, [11 x i32], i32, i32, i32, i32, ptr, i32, ptr, ptr, i32, i32, i32, double, i32, %struct.Vec_Int_t_, ptr, ptr, ptr, ptr, ptr, float, i32, ptr, ptr, ptr, ptr, ptr, ptr, ptr, ptr, ptr, ptr, ptr, ptr, ptr, ptr, ptr, ptr, ptr, ptr, ptr, ptr, ptr, ptr }
%struct.Vec_Int_t_ = type { i32, i32, ptr }
%struct.Abc_Obj_t_ = type { ptr, ptr, i32, i32, %struct.Vec_Int_t_, %struct.Vec_Int_t_, %union.anon.0, %union.anon.1 }
%union.anon.0 = type { ptr }
%union.anon.1 = type { ptr }
%struct.Vec_Ptr_t_ = type { i32, i32, ptr }

@pManMR = external global ptr, align 8

; Function Attrs: inlinehint nounwind uwtable
define internal ptr @Abc_ObjFanin0(ptr noundef %0) #2 {
  %2 = alloca ptr, align 8
  store ptr %0, ptr %2, align 8, !tbaa !34
  %3 = load ptr, ptr %2, align 8, !tbaa !34
  %4 = getelementptr inbounds nuw %struct.Abc_Obj_t_, ptr %3, i32 0, i32 0
  %5 = load ptr, ptr %4, align 8, !tbaa !53
  %6 = getelementptr inbounds nuw %struct.Abc_Ntk_t_, ptr %5, i32 0, i32 5
  %7 = load ptr, ptr %6, align 8, !tbaa !41
  %8 = getelementptr inbounds nuw %struct.Vec_Ptr_t_, ptr %7, i32 0, i32 2
  %9 = load ptr, ptr %8, align 8, !tbaa !55
  %10 = load ptr, ptr %2, align 8, !tbaa !34
  %11 = getelementptr inbounds nuw %struct.Abc_Obj_t_, ptr %10, i32 0, i32 4
  %12 = getelementptr inbounds nuw %struct.Vec_Int_t_, ptr %11, i32 0, i32 2
  %13 = load ptr, ptr %12, align 8, !tbaa !56
  %14 = getelementptr inbounds i32, ptr %13, i64 0
  %15 = load i32, ptr %14, align 4, !tbaa !19
  %16 = sext i32 %15 to i64
  %17 = getelementptr inbounds ptr, ptr %9, i64 %16
  %18 = load ptr, ptr %17, align 8, !tbaa !57
  ret ptr %18
}

; Function Attrs: inlinehint nounwind uwtable
define internal ptr @Abc_NtkPo(ptr noundef %0, i32 noundef %1) #2 {
  %3 = alloca ptr, align 8
  %4 = alloca i32, align 4
  store ptr %0, ptr %3, align 8, !tbaa !3
  store i32 %1, ptr %4, align 4, !tbaa !19
  %5 = load ptr, ptr %3, align 8, !tbaa !3
  %6 = getelementptr inbounds nuw %struct.Abc_Ntk_t_, ptr %5, i32 0, i32 7
  %7 = load ptr, ptr %6, align 8, !tbaa !87
  %8 = load i32, ptr %4, align 4, !tbaa !19
  %9 = call ptr @Vec_PtrEntry(ptr noundef %7, i32 noundef %8)
  ret ptr %9
}

; Function Attrs: inlinehint nounwind uwtable
define internal ptr @Abc_NtkCreatePo(ptr noundef %0) #2 {
  %2 = alloca ptr, align 8
  store ptr %0, ptr %2, align 8, !tbaa !3
  %3 = load ptr, ptr %2, align 8, !tbaa !3
  %4 = call ptr @Abc_NtkCreateObj(ptr noundef %3, i32 noundef 3)
  ret ptr %4
}

; Function Attrs: inlinehint nounwind uwtable
define internal ptr @Abc_ObjCopy(ptr noundef %0) #2 {
  %2 = alloca ptr, align 8
  store ptr %0, ptr %2, align 8, !tbaa !34
  %3 = load ptr, ptr %2, align 8, !tbaa !34
  %4 = getelementptr inbounds nuw %struct.Abc_Obj_t_, ptr %3, i32 0, i32 7
  %5 = load ptr, ptr %4, align 8, !tbaa !42
  ret ptr %5
}

; Function Attrs: inlinehint nounwind uwtable
define internal ptr @Abc_ObjFanin(ptr noundef %0, i32 noundef %1) #2 {
  %3 = alloca ptr, align 8
  %4 = alloca i32, align 4
  store ptr %0, ptr %3, align 8, !tbaa !34
  store i32 %1, ptr %4, align 4, !tbaa !19
  %5 = load ptr, ptr %3, align 8, !tbaa !34
  %6 = getelementptr inbounds nuw %struct.Abc_Obj_t_, ptr %5, i32 0, i32 0
  %7 = load ptr, ptr %6, align 8, !tbaa !53
  %8 = getelementptr inbounds nuw %struct.Abc_Ntk_t_, ptr %7, i32 0, i32 5
  %9 = load ptr, ptr %8, align 8, !tbaa !41
  %10 = getelementptr inbounds nuw %struct.Vec_Ptr_t_, ptr %9, i32 0, i32 2
  %11 = load ptr, ptr %10, align 8, !tbaa !55
  %12 = load ptr, ptr %3, align 8, !tbaa !34
  %13 = getelementptr inbounds nuw %struct.Abc_Obj_t_, ptr %12, i32 0, i32 4
  %14 = getelementptr inbounds nuw %struct.Vec_Int_t_, ptr %13, i32 0, i32 2
  %15 = load ptr, ptr %14, align 8, !tbaa !56
  %16 = load i32, ptr %4, align 4, !tbaa !19
  %17 = sext i32 %16 to i64
  %18 = getelementptr inbounds i32, ptr %15, i64 %17
  %19 = load i32, ptr %18, align 4, !tbaa !19
  %20 = sext i32 %19 to i64
  %21 = getelementptr inbounds ptr, ptr %11, i64 %20
  %22 = load ptr, ptr %21, align 8, !tbaa !57
  ret ptr %22
}

; Function Attrs: inlinehint nounwind uwtable
define internal i32 @Abc_ObjFaninNum(ptr noundef %0) #2 {
  %2 = alloca ptr, align 8
  store ptr %0, ptr %2, align 8, !tbaa !34
  %3 = load ptr, ptr %2, align 8, !tbaa !34
  %4 = getelementptr inbounds nuw %struct.Abc_Obj_t_, ptr %3, i32 0, i32 4
  %5 = getelementptr inbounds nuw %struct.Vec_Int_t_, ptr %4, i32 0, i32 1
  %6 = load i32, ptr %5, align 4, !tbaa !86
  ret i32 %6
}

; Function Attrs: inlinehint nounwind uwtable
define internal void @Abc_ObjSetCopy(ptr noundef %0, ptr noundef %1) #2 {
  %3 = alloca ptr, align 8
  %4 = alloca ptr, align 8
  store ptr %0, ptr %3, align 8, !tbaa !34
  store ptr %1, ptr %4, align 8, !tbaa !34
  %5 = load ptr, ptr %4, align 8, !tbaa !34
  %6 = load ptr, ptr %3, align 8, !tbaa !34
  %7 = getelementptr inbounds nuw %struct.Abc_Obj_t_, ptr %6, i32 0, i32 7
  store ptr %5, ptr %7, align 8, !tbaa !42
  ret void
}

; Function Attrs: inlinehint nounwind uwtable
define internal ptr @Abc_NtkCreatePi(ptr noundef %0) #2 {
  %2 = alloca ptr, align 8
  store ptr %0, ptr %2, align 8, !tbaa !3
  %3 = load ptr, ptr %2, align 8, !tbaa !3
  %4 = call ptr @Abc_NtkCreateObj(ptr noundef %3, i32 noundef 2)
  ret ptr %4
}

; Function Attrs: inlinehint nounwind uwtable
define internal ptr @Vec_PtrEntry(ptr noundef %0, i32 noundef %1) #2 {
  %3 = alloca ptr, align 8
  %4 = alloca i32, align 4
  store ptr %0, ptr %3, align 8, !tbaa !39
  store i32 %1, ptr %4, align 4, !tbaa !19
  %5 = load ptr, ptr %3, align 8, !tbaa !39
  %6 = getelementptr inbounds nuw %struct.Vec_Ptr_t_, ptr %5, i32 0, i32 2
  %7 = load ptr, ptr %6, align 8, !tbaa !55
  %8 = load i32, ptr %4, align 4, !tbaa !19
  %9 = sext i32 %8 to i64
  %10 = getelementptr inbounds ptr, ptr %7, i64 %9
  %11 = load ptr, ptr %10, align 8, !tbaa !57
  ret ptr %11
}

; Function Attrs: inlinehint nounwind uwtable
define internal i32 @Vec_PtrSize(ptr noundef %0) #2 {
  %2 = alloca ptr, align 8
  store ptr %0, ptr %2, align 8, !tbaa !39
  %3 = load ptr, ptr %2, align 8, !tbaa !39
  %4 = getelementptr inbounds nuw %struct.Vec_Ptr_t_, ptr %3, i32 0, i32 1
  %5 = load i32, ptr %4, align 4, !tbaa !49
  ret i32 %5
}

; Function Attrs: nounwind uwtable
define i32 @Abc_FlowRetime_PartialSat(ptr noundef %0, i32 noundef %1) #0 {
  %3 = alloca ptr, align 8
  %4 = alloca i32, align 4
  %5 = alloca ptr, align 8
  %6 = alloca ptr, align 8
  %7 = alloca ptr, align 8
  %8 = alloca ptr, align 8
  %9 = alloca ptr, align 8
  %10 = alloca ptr, align 8
  %11 = alloca ptr, align 8
  %12 = alloca i32, align 4
  %13 = alloca i32, align 4
  %14 = alloca i32, align 4
  store ptr %0, ptr %3, align 8, !tbaa !39
  store i32 %1, ptr %4, align 4, !tbaa !19
  call void @llvm.lifetime.start.p0(i64 8, ptr %5) #10
  call void @llvm.lifetime.start.p0(i64 8, ptr %6) #10
  %15 = load ptr, ptr @pManMR, align 8, !tbaa !8
  %16 = getelementptr inbounds nuw %struct.MinRegMan_t_, ptr %15, i32 0, i32 27
  %17 = load ptr, ptr %16, align 8, !tbaa !40
  store ptr %17, ptr %6, align 8, !tbaa !3
  call void @llvm.lifetime.start.p0(i64 8, ptr %7) #10
  call void @llvm.lifetime.start.p0(i64 8, ptr %8) #10
  call void @llvm.lifetime.start.p0(i64 8, ptr %9) #10
  call void @llvm.lifetime.start.p0(i64 8, ptr %10) #10
  call void @llvm.lifetime.start.p0(i64 8, ptr %11) #10
  call void @llvm.lifetime.start.p0(i64 4, ptr %12) #10
  call void @llvm.lifetime.start.p0(i64 4, ptr %13) #10
  call void @llvm.lifetime.start.p0(i64 4, ptr %14) #10
  %18 = load ptr, ptr %6, align 8, !tbaa !3
  %19 = getelementptr inbounds nuw %struct.Abc_Ntk_t_, ptr %18, i32 0, i32 0
  %20 = load i32, ptr %19, align 8, !tbaa !60
  %21 = load ptr, ptr %6, align 8, !tbaa !3
  %22 = getelementptr inbounds nuw %struct.Abc_Ntk_t_, ptr %21, i32 0, i32 1
  %23 = load i32, ptr %22, align 4, !tbaa !61
  %24 = call ptr @Abc_NtkAlloc(i32 noundef %20, i32 noundef %23, i32 noundef 0)
  store ptr %24, ptr %5, align 8, !tbaa !3
  store i32 0, ptr %12, align 4, !tbaa !19
  br label %25

25:                                               ; preds = %97, %2
  %26 = load i32, ptr %12, align 4, !tbaa !19
  %27 = load ptr, ptr %3, align 8, !tbaa !39
  %28 = call i32 @Vec_PtrSize(ptr noundef %27)
  %29 = icmp slt i32 %26, %28
  br i1 %29, label %30, label %34

30:                                               ; preds = %25
  %31 = load ptr, ptr %3, align 8, !tbaa !39
  %32 = load i32, ptr %12, align 4, !tbaa !19
  %33 = call ptr @Vec_PtrEntry(ptr noundef %31, i32 noundef %32)
  store ptr %33, ptr %7, align 8, !tbaa !34
  br label %34

34:                                               ; preds = %30, %25
  %35 = phi i1 [ false, %25 ], [ true, %30 ]
  br i1 %35, label %36, label %100

36:                                               ; preds = %34
  %37 = load i32, ptr %12, align 4, !tbaa !19
  %38 = load ptr, ptr %7, align 8, !tbaa !34
  %39 = getelementptr inbounds nuw %struct.Abc_Obj_t_, ptr %38, i32 0, i32 3
  %40 = load i32, ptr %39, align 4
  %41 = and i32 %37, 1048575
  %42 = shl i32 %41, 12
  %43 = and i32 %40, 4095
  %44 = or i32 %43, %42
  store i32 %44, ptr %39, align 4
  %45 = load i32, ptr %12, align 4, !tbaa !19
  %46 = load i32, ptr %4, align 4, !tbaa !19
  %47 = icmp slt i32 %45, %46
  br i1 %47, label %48, label %60

48:                                               ; preds = %36
  %49 = load ptr, ptr %7, align 8, !tbaa !34
  %50 = getelementptr inbounds nuw %struct.Abc_Obj_t_, ptr %49, i32 0, i32 3
  %51 = load i32, ptr %50, align 4
  %52 = lshr i32 %51, 4
  %53 = and i32 %52, 1
  %54 = icmp ne i32 %53, 0
  br i1 %54, label %60, label %55

55:                                               ; preds = %48
  %56 = load ptr, ptr %5, align 8, !tbaa !3
  %57 = call ptr @Abc_NtkCreatePi(ptr noundef %56)
  store ptr %57, ptr %9, align 8, !tbaa !34
  %58 = load ptr, ptr %7, align 8, !tbaa !34
  %59 = load ptr, ptr %9, align 8, !tbaa !34
  call void @Abc_ObjSetCopy(ptr noundef %58, ptr noundef %59)
  br label %96

60:                                               ; preds = %48, %36
  %61 = load ptr, ptr %5, align 8, !tbaa !3
  %62 = load ptr, ptr %7, align 8, !tbaa !34
  %63 = call ptr @Abc_NtkDupObj(ptr noundef %61, ptr noundef %62, i32 noundef 0)
  store ptr %63, ptr %9, align 8, !tbaa !34
  %64 = load ptr, ptr %7, align 8, !tbaa !34
  %65 = getelementptr inbounds nuw %struct.Abc_Obj_t_, ptr %64, i32 0, i32 3
  %66 = load i32, ptr %65, align 4
  %67 = lshr i32 %66, 7
  %68 = and i32 %67, 1
  %69 = load ptr, ptr %9, align 8, !tbaa !34
  %70 = getelementptr inbounds nuw %struct.Abc_Obj_t_, ptr %69, i32 0, i32 3
  %71 = load i32, ptr %70, align 4
  %72 = and i32 %68, 1
  %73 = shl i32 %72, 7
  %74 = and i32 %71, -129
  %75 = or i32 %74, %73
  store i32 %75, ptr %70, align 4
  store i32 0, ptr %13, align 4, !tbaa !19
  br label %76

76:                                               ; preds = %92, %60
  %77 = load i32, ptr %13, align 4, !tbaa !19
  %78 = load ptr, ptr %7, align 8, !tbaa !34
  %79 = call i32 @Abc_ObjFaninNum(ptr noundef %78)
  %80 = icmp slt i32 %77, %79
  br i1 %80, label %81, label %85

81:                                               ; preds = %76
  %82 = load ptr, ptr %7, align 8, !tbaa !34
  %83 = load i32, ptr %13, align 4, !tbaa !19
  %84 = call ptr @Abc_ObjFanin(ptr noundef %82, i32 noundef %83)
  store ptr %84, ptr %8, align 8, !tbaa !34
  br label %85

85:                                               ; preds = %81, %76
  %86 = phi i1 [ false, %76 ], [ true, %81 ]
  br i1 %86, label %87, label %95

87:                                               ; preds = %85
  %88 = load ptr, ptr %8, align 8, !tbaa !34
  %89 = call ptr @Abc_ObjCopy(ptr noundef %88)
  store ptr %89, ptr %10, align 8, !tbaa !34
  %90 = load ptr, ptr %9, align 8, !tbaa !34
  %91 = load ptr, ptr %10, align 8, !tbaa !34
  call void @Abc_ObjAddFanin(ptr noundef %90, ptr noundef %91)
  br label %92

92:                                               ; preds = %87
  %93 = load i32, ptr %13, align 4, !tbaa !19
  %94 = add nsw i32 %93, 1
  store i32 %94, ptr %13, align 4, !tbaa !19
  br label %76, !llvm.loop !84

95:                                               ; preds = %85
  br label %96

96:                                               ; preds = %95, %55
  br label %97

97:                                               ; preds = %96
  %98 = load i32, ptr %12, align 4, !tbaa !19
  %99 = add nsw i32 %98, 1
  store i32 %99, ptr %12, align 4, !tbaa !19
  br label %25, !llvm.loop !85

100:                                              ; preds = %34
  %101 = load ptr, ptr %5, align 8, !tbaa !3
  %102 = call ptr @Abc_NtkCreatePo(ptr noundef %101)
  store ptr %102, ptr %11, align 8, !tbaa !34
  %103 = load ptr, ptr %6, align 8, !tbaa !3
  %104 = call ptr @Abc_NtkPo(ptr noundef %103, i32 noundef 0)
  %105 = call ptr @Abc_ObjFanin0(ptr noundef %104)
  store ptr %105, ptr %8, align 8, !tbaa !34
  %106 = load ptr, ptr %8, align 8, !tbaa !34
  %107 = call ptr @Abc_ObjCopy(ptr noundef %106)
  store ptr %107, ptr %10, align 8, !tbaa !34
  %108 = load ptr, ptr %11, align 8, !tbaa !34
  %109 = load ptr, ptr %10, align 8, !tbaa !34
  call void @Abc_ObjAddFanin(ptr noundef %108, ptr noundef %109)
  %110 = load ptr, ptr %5, align 8, !tbaa !3
  call void @Abc_NtkAddDummyPoNames(ptr noundef %110)
  %111 = load ptr, ptr %5, align 8, !tbaa !3
  call void @Abc_NtkAddDummyPiNames(ptr noundef %111)
  %112 = load ptr, ptr %5, align 8, !tbaa !3
  %113 = call i32 @Abc_NtkCheck(ptr noundef %112)
  %114 = load ptr, ptr %5, align 8, !tbaa !3
  %115 = call i32 @Abc_NtkMiterSat(ptr noundef %114, i64 noundef 500000, i64 noundef 50000000, i32 noundef 0, ptr noundef null, ptr noundef null)
  store i32 %115, ptr %14, align 4, !tbaa !19
  %116 = load ptr, ptr %5, align 8, !tbaa !3
  call void @Abc_NtkDelete(ptr noundef %116)
  %117 = load i32, ptr %14, align 4, !tbaa !19
  %118 = icmp ne i32 %117, 0
  %119 = xor i1 %118, true
  %120 = zext i1 %119 to i32
  call void @llvm.lifetime.end.p0(i64 4, ptr %14) #10
  call void @llvm.lifetime.end.p0(i64 4, ptr %13) #10
  call void @llvm.lifetime.end.p0(i64 4, ptr %12) #10
  call void @llvm.lifetime.end.p0(i64 8, ptr %11) #10
  call void @llvm.lifetime.end.p0(i64 8, ptr %10) #10
  call void @llvm.lifetime.end.p0(i64 8, ptr %9) #10
  call void @llvm.lifetime.end.p0(i64 8, ptr %8) #10
  call void @llvm.lifetime.end.p0(i64 8, ptr %7) #10
  call void @llvm.lifetime.end.p0(i64 8, ptr %6) #10
  call void @llvm.lifetime.end.p0(i64 8, ptr %5) #10
  ret i32 %120
}