; Function Attrs: nounwind uwtable
define range(i32 0, 2) i32 @Abc_FlowRetime_PartialSat(ptr noundef readonly captures(none) %0, i32 noundef %1) local_unnamed_addr #0 {
  %3 = load ptr, ptr @pManMR, align 8, !tbaa !3
  %4 = getelementptr inbounds nuw i8, ptr %3, i64 144
  %5 = load ptr, ptr %4, align 8, !tbaa !53
  %6 = load i32, ptr %5, align 8, !tbaa !66
  %7 = getelementptr inbounds nuw i8, ptr %5, i64 4
  %8 = load i32, ptr %7, align 4, !tbaa !67
  %9 = tail call ptr @Abc_NtkAlloc(i32 noundef %6, i32 noundef %8, i32 noundef 0) #18
  %10 = getelementptr i8, ptr %0, i64 4
  %.val52 = load i32, ptr %10, align 4, !tbaa !33
  %11 = icmp sgt i32 %.val52, 0
  br i1 %11, label %.lr.ph54, label %.critedge

.lr.ph54:                                         ; preds = %2
  %12 = getelementptr i8, ptr %0, i64 8
  %13 = sext i32 %1 to i64
  br label %14

14:                                               ; preds = %.lr.ph54, %.critedge2
  %indvars.iv56 = phi i64 [ 0, %.lr.ph54 ], [ %indvars.iv.next57, %.critedge2 ]
  %.val41 = load ptr, ptr %12, align 8, !tbaa !41
  %15 = getelementptr inbounds nuw ptr, ptr %.val41, i64 %indvars.iv56
  %16 = load ptr, ptr %15, align 8, !tbaa !42
  %17 = getelementptr inbounds nuw i8, ptr %16, i64 20
  %18 = load i32, ptr %17, align 4
  %19 = trunc nuw nsw i64 %indvars.iv56 to i32
  %20 = shl i32 %19, 12
  %21 = and i32 %18, 4095
  %22 = or disjoint i32 %21, %20
  store i32 %22, ptr %17, align 4
  %23 = icmp slt i64 %indvars.iv56, %13
  %24 = and i32 %18, 16
  %.not40 = icmp eq i32 %24, 0
  %or.cond = select i1 %23, i1 %.not40, i1 false
  br i1 %or.cond, label %25, label %28

25:                                               ; preds = %14
  %26 = tail call ptr @Abc_NtkCreateObj(ptr noundef %9, i32 noundef 2) #18
  %27 = getelementptr inbounds nuw i8, ptr %16, i64 64
  store ptr %26, ptr %27, align 8, !tbaa !49
  br label %.critedge2

28:                                               ; preds = %14
  %29 = tail call ptr @Abc_NtkDupObj(ptr noundef %9, ptr noundef nonnull %16, i32 noundef 0) #18
  %30 = load i32, ptr %17, align 4
  %31 = and i32 %30, 128
  %32 = getelementptr inbounds nuw i8, ptr %29, i64 20
  %33 = load i32, ptr %32, align 4
  %34 = and i32 %33, -129
  %35 = or disjoint i32 %34, %31
  store i32 %35, ptr %32, align 4
  %36 = getelementptr i8, ptr %16, i64 28
  %.val4450 = load i32, ptr %36, align 4, !tbaa !63
  %37 = icmp sgt i32 %.val4450, 0
  br i1 %37, label %.lr.ph, label %.critedge2

.lr.ph:                                           ; preds = %28
  %38 = getelementptr i8, ptr %16, i64 32
  br label %39

39:                                               ; preds = %.lr.ph, %39
  %indvars.iv = phi i64 [ 0, %.lr.ph ], [ %indvars.iv.next, %39 ]
  %.val45 = load ptr, ptr %16, align 8, !tbaa !43
  %.val46 = load ptr, ptr %38, align 8, !tbaa !46
  %40 = getelementptr i8, ptr %.val45, i64 32
  %.val45.val = load ptr, ptr %40, align 8, !tbaa !32
  %41 = getelementptr i8, ptr %.val45.val, i64 8
  %.val45.val.val = load ptr, ptr %41, align 8, !tbaa !41
  %42 = getelementptr inbounds nuw i32, ptr %.val46, i64 %indvars.iv
  %43 = load i32, ptr %42, align 4, !tbaa !37
  %44 = sext i32 %43 to i64
  %45 = getelementptr inbounds ptr, ptr %.val45.val.val, i64 %44
  %46 = load ptr, ptr %45, align 8, !tbaa !42
  %47 = getelementptr i8, ptr %46, i64 64
  %.val48 = load ptr, ptr %47, align 8, !tbaa !49
  tail call void @Abc_ObjAddFanin(ptr noundef %29, ptr noundef %.val48) #18
  %indvars.iv.next = add nuw nsw i64 %indvars.iv, 1
  %.val44 = load i32, ptr %36, align 4, !tbaa !63
  %48 = sext i32 %.val44 to i64
  %49 = icmp slt i64 %indvars.iv.next, %48
  br i1 %49, label %39, label %.critedge2, !llvm.loop !95

.critedge2:                                       ; preds = %39, %28, %25
  %indvars.iv.next57 = add nuw nsw i64 %indvars.iv56, 1
  %.val = load i32, ptr %10, align 4, !tbaa !33
  %50 = sext i32 %.val to i64
  %51 = icmp slt i64 %indvars.iv.next57, %50
  br i1 %51, label %14, label %.critedge, !llvm.loop !96

.critedge:                                        ; preds = %.critedge2, %2
  %52 = tail call ptr @Abc_NtkCreateObj(ptr noundef %9, i32 noundef 3) #18
  %53 = getelementptr i8, ptr %5, i64 48
  %.val49 = load ptr, ptr %53, align 8, !tbaa !97
  %54 = getelementptr i8, ptr %.val49, i64 8
  %.val49.val = load ptr, ptr %54, align 8, !tbaa !41
  %.val49.val.val = load ptr, ptr %.val49.val, align 8, !tbaa !42
  %.val42 = load ptr, ptr %.val49.val.val, align 8, !tbaa !43
  %55 = getelementptr i8, ptr %.val49.val.val, i64 32
  %.val43 = load ptr, ptr %55, align 8, !tbaa !46
  %56 = getelementptr i8, ptr %.val42, i64 32
  %.val42.val = load ptr, ptr %56, align 8, !tbaa !32
  %.val43.val = load i32, ptr %.val43, align 4, !tbaa !37
  %57 = getelementptr i8, ptr %.val42.val, i64 8
  %.val42.val.val = load ptr, ptr %57, align 8, !tbaa !41
  %58 = sext i32 %.val43.val to i64
  %59 = getelementptr inbounds ptr, ptr %.val42.val.val, i64 %58
  %60 = load ptr, ptr %59, align 8, !tbaa !42
  %61 = getelementptr i8, ptr %60, i64 64
  %.val47 = load ptr, ptr %61, align 8, !tbaa !49
  tail call void @Abc_ObjAddFanin(ptr noundef %52, ptr noundef %.val47) #18
  tail call void @Abc_NtkAddDummyPoNames(ptr noundef %9) #18
  tail call void @Abc_NtkAddDummyPiNames(ptr noundef %9) #18
  %62 = tail call i32 @Abc_NtkCheck(ptr noundef %9) #18
  %63 = tail call i32 @Abc_NtkMiterSat(ptr noundef %9, i64 noundef 500000, i64 noundef 50000000, i32 noundef 0, ptr noundef null, ptr noundef null) #18
  tail call void @Abc_NtkDelete(ptr noundef %9) #18
  %.not = icmp eq i32 %63, 0
  %64 = zext i1 %.not to i32
  ret i32 %64
}